target datalayout = "e-m:e-p270:32:32-p271:32:32-p272:64:64-i64:64-i128:128-f80:128-n8:16:32:64-S128"
target triple = "x86_64-pc-linux-gnu"

%struct.pg_prng_state = type { i64, i64 }
%struct.SampleScan = type { %struct.Scan, ptr }
%struct.Scan = type { %struct.Plan, i32 }
%struct.Plan = type { i32, i32, double, double, double, i32, i8, i8, i8, i32, ptr, ptr, ptr, ptr, ptr, ptr, ptr }
%struct.SampleScanState = type { %struct.ScanState, ptr, ptr, ptr, ptr, i8, i8, i8, i32, i64, i8, i8 }
%struct.ScanState = type { %struct.PlanState, ptr, ptr, ptr }
%struct.PlanState = type { i32, ptr, ptr, ptr, ptr, ptr, ptr, ptr, ptr, ptr, ptr, ptr, ptr, ptr, ptr, ptr, ptr, ptr, i8, ptr, ptr, ptr, ptr, ptr, i8, i8, i8, i8, i8, i8, i8, i8 }
%struct.RelationData = type { %struct.RelFileLocator, ptr, i32, i32, i8, i8, i8, i8, i8, i32, i32, i32, i32, ptr, ptr, i32, %struct.LockInfoData, ptr, ptr, ptr, ptr, ptr, i8, ptr, ptr, ptr, ptr, ptr, ptr, i32, ptr, i8, ptr, ptr, i32, i8, i32, ptr, i8, ptr, ptr, ptr, ptr, ptr, ptr, ptr, i32, ptr, ptr, ptr, ptr, ptr, ptr, ptr, ptr, ptr, ptr, ptr, ptr, ptr, ptr, ptr, ptr, ptr, ptr, ptr, i32, i8, ptr }
%struct.RelFileLocator = type { i32, i32, i32 }
%struct.LockInfoData = type { %struct.LockRelId }
%struct.LockRelId = type { i32, i32 }
%struct.TableSampleClause = type { i32, i32, ptr, ptr }
%struct.TsmRoutine = type { i32, ptr, i8, i8, ptr, ptr, ptr, ptr, ptr, ptr }
%struct.Node = type { i32 }

@pg_global_prng_state = external global %struct.pg_prng_state, align 8

; Function Attrs: inlinehint nounwind uwtable
define internal ptr @newNode(i64 noundef %0, i32 noundef %1) #2 {
  %3 = alloca i64, align 8
  %4 = alloca i32, align 4
  %5 = alloca ptr, align 8
  store i64 %0, ptr %3, align 8
  store i32 %1, ptr %4, align 4
  call void @llvm.lifetime.start.p0(i64 8, ptr %5) #7
  %6 = load i64, ptr %3, align 8
  %7 = call ptr @palloc0(i64 noundef %6)
  store ptr %7, ptr %5, align 8
  %8 = load i32, ptr %4, align 4
  %9 = load ptr, ptr %5, align 8
  %10 = getelementptr inbounds nuw %struct.Node, ptr %9, i32 0, i32 0
  store i32 %8, ptr %10, align 4
  %11 = load ptr, ptr %5, align 8
  call void @llvm.lifetime.end.p0(i64 8, ptr %5) #7
  ret ptr %11
}

; Function Attrs: nounwind uwtable
define dso_local ptr @ExecInitSampleScan(ptr noundef %0, ptr noundef %1, i32 noundef %2) #0 {
  %4 = alloca ptr, align 8
  %5 = alloca ptr, align 8
  %6 = alloca i32, align 4
  %7 = alloca ptr, align 8
  %8 = alloca ptr, align 8
  %9 = alloca ptr, align 8
  store ptr %0, ptr %4, align 8
  store ptr %1, ptr %5, align 8
  store i32 %2, ptr %6, align 4
  call void @llvm.lifetime.start.p0(i64 8, ptr %7) #7
  call void @llvm.lifetime.start.p0(i64 8, ptr %8) #7
  %10 = load ptr, ptr %4, align 8
  %11 = getelementptr inbounds nuw %struct.SampleScan, ptr %10, i32 0, i32 1
  %12 = load ptr, ptr %11, align 8
  store ptr %12, ptr %8, align 8
  call void @llvm.lifetime.start.p0(i64 8, ptr %9) #7
  %13 = call ptr @newNode(i64 noundef 280, i32 noundef 403)
  store ptr %13, ptr %7, align 8
  %14 = load ptr, ptr %4, align 8
  %15 = load ptr, ptr %7, align 8
  %16 = getelementptr inbounds nuw %struct.SampleScanState, ptr %15, i32 0, i32 0
  %17 = getelementptr inbounds nuw %struct.ScanState, ptr %16, i32 0, i32 0
  %18 = getelementptr inbounds nuw %struct.PlanState, ptr %17, i32 0, i32 1
  store ptr %14, ptr %18, align 8
  %19 = load ptr, ptr %5, align 8
  %20 = load ptr, ptr %7, align 8
  %21 = getelementptr inbounds nuw %struct.SampleScanState, ptr %20, i32 0, i32 0
  %22 = getelementptr inbounds nuw %struct.ScanState, ptr %21, i32 0, i32 0
  %23 = getelementptr inbounds nuw %struct.PlanState, ptr %22, i32 0, i32 2
  store ptr %19, ptr %23, align 8
  %24 = load ptr, ptr %7, align 8
  %25 = getelementptr inbounds nuw %struct.SampleScanState, ptr %24, i32 0, i32 0
  %26 = getelementptr inbounds nuw %struct.ScanState, ptr %25, i32 0, i32 0
  %27 = getelementptr inbounds nuw %struct.PlanState, ptr %26, i32 0, i32 3
  store ptr @ExecSampleScan, ptr %27, align 8
  %28 = load ptr, ptr %5, align 8
  %29 = load ptr, ptr %7, align 8
  %30 = getelementptr inbounds nuw %struct.SampleScanState, ptr %29, i32 0, i32 0
  %31 = getelementptr inbounds nuw %struct.ScanState, ptr %30, i32 0, i32 0
  call void @ExecAssignExprContext(ptr noundef %28, ptr noundef %31)
  %32 = load ptr, ptr %5, align 8
  %33 = load ptr, ptr %4, align 8
  %34 = getelementptr inbounds nuw %struct.SampleScan, ptr %33, i32 0, i32 0
  %35 = getelementptr inbounds nuw %struct.Scan, ptr %34, i32 0, i32 1
  %36 = load i32, ptr %35, align 8
  %37 = load i32, ptr %6, align 4
  %38 = call ptr @ExecOpenScanRelation(ptr noundef %32, i32 noundef %36, i32 noundef %37)
  %39 = load ptr, ptr %7, align 8
  %40 = getelementptr inbounds nuw %struct.SampleScanState, ptr %39, i32 0, i32 0
  %41 = getelementptr inbounds nuw %struct.ScanState, ptr %40, i32 0, i32 1
  store ptr %38, ptr %41, align 8
  %42 = load ptr, ptr %7, align 8
  %43 = getelementptr inbounds nuw %struct.SampleScanState, ptr %42, i32 0, i32 0
  %44 = getelementptr inbounds nuw %struct.ScanState, ptr %43, i32 0, i32 2
  store ptr null, ptr %44, align 8
  %45 = load ptr, ptr %5, align 8
  %46 = load ptr, ptr %7, align 8
  %47 = getelementptr inbounds nuw %struct.SampleScanState, ptr %46, i32 0, i32 0
  %48 = load ptr, ptr %7, align 8
  %49 = getelementptr inbounds nuw %struct.SampleScanState, ptr %48, i32 0, i32 0
  %50 = getelementptr inbounds nuw %struct.ScanState, ptr %49, i32 0, i32 1
  %51 = load ptr, ptr %50, align 8
  %52 = getelementptr inbounds nuw %struct.RelationData, ptr %51, i32 0, i32 14
  %53 = load ptr, ptr %52, align 8
  %54 = load ptr, ptr %7, align 8
  %55 = getelementptr inbounds nuw %struct.SampleScanState, ptr %54, i32 0, i32 0
  %56 = getelementptr inbounds nuw %struct.ScanState, ptr %55, i32 0, i32 1
  %57 = load ptr, ptr %56, align 8
  %58 = call ptr @table_slot_callbacks(ptr noundef %57)
  call void @ExecInitScanTupleSlot(ptr noundef %45, ptr noundef %47, ptr noundef %53, ptr noundef %58)
  %59 = load ptr, ptr %7, align 8
  %60 = getelementptr inbounds nuw %struct.SampleScanState, ptr %59, i32 0, i32 0
  %61 = getelementptr inbounds nuw %struct.ScanState, ptr %60, i32 0, i32 0
  call void @ExecInitResultTypeTL(ptr noundef %61)
  %62 = load ptr, ptr %7, align 8
  %63 = getelementptr inbounds nuw %struct.SampleScanState, ptr %62, i32 0, i32 0
  call void @ExecAssignScanProjectionInfo(ptr noundef %63)
  %64 = load ptr, ptr %4, align 8
  %65 = getelementptr inbounds nuw %struct.SampleScan, ptr %64, i32 0, i32 0
  %66 = getelementptr inbounds nuw %struct.Scan, ptr %65, i32 0, i32 0
  %67 = getelementptr inbounds nuw %struct.Plan, ptr %66, i32 0, i32 11
  %68 = load ptr, ptr %67, align 8
  %69 = load ptr, ptr %7, align 8
  %70 = call ptr @ExecInitQual(ptr noundef %68, ptr noundef %69)
  %71 = load ptr, ptr %7, align 8
  %72 = getelementptr inbounds nuw %struct.SampleScanState, ptr %71, i32 0, i32 0
  %73 = getelementptr inbounds nuw %struct.ScanState, ptr %72, i32 0, i32 0
  %74 = getelementptr inbounds nuw %struct.PlanState, ptr %73, i32 0, i32 8
  store ptr %70, ptr %74, align 8
  %75 = load ptr, ptr %8, align 8
  %76 = getelementptr inbounds nuw %struct.TableSampleClause, ptr %75, i32 0, i32 2
  %77 = load ptr, ptr %76, align 8
  %78 = load ptr, ptr %7, align 8
  %79 = call ptr @ExecInitExprList(ptr noundef %77, ptr noundef %78)
  %80 = load ptr, ptr %7, align 8
  %81 = getelementptr inbounds nuw %struct.SampleScanState, ptr %80, i32 0, i32 1
  store ptr %79, ptr %81, align 8
  %82 = load ptr, ptr %8, align 8
  %83 = getelementptr inbounds nuw %struct.TableSampleClause, ptr %82, i32 0, i32 3
  %84 = load ptr, ptr %83, align 8
  %85 = load ptr, ptr %7, align 8
  %86 = call ptr @ExecInitExpr(ptr noundef %84, ptr noundef %85)
  %87 = load ptr, ptr %7, align 8
  %88 = getelementptr inbounds nuw %struct.SampleScanState, ptr %87, i32 0, i32 2
  store ptr %86, ptr %88, align 8
  %89 = load ptr, ptr %8, align 8
  %90 = getelementptr inbounds nuw %struct.TableSampleClause, ptr %89, i32 0, i32 3
  %91 = load ptr, ptr %90, align 8
  %92 = icmp eq ptr %91, null
  br i1 %92, label %93, label %97

93:                                               ; preds = %3
  %94 = call i32 @pg_prng_uint32(ptr noundef @pg_global_prng_state)
  %95 = load ptr, ptr %7, align 8
  %96 = getelementptr inbounds nuw %struct.SampleScanState, ptr %95, i32 0, i32 8
  store i32 %94, ptr %96, align 4
  br label %97

97:                                               ; preds = %93, %3
  %98 = load ptr, ptr %8, align 8
  %99 = getelementptr inbounds nuw %struct.TableSampleClause, ptr %98, i32 0, i32 1
  %100 = load i32, ptr %99, align 4
  %101 = call ptr @GetTsmRoutine(i32 noundef %100)
  store ptr %101, ptr %9, align 8
  %102 = load ptr, ptr %9, align 8
  %103 = load ptr, ptr %7, align 8
  %104 = getelementptr inbounds nuw %struct.SampleScanState, ptr %103, i32 0, i32 3
  store ptr %102, ptr %104, align 8
  %105 = load ptr, ptr %7, align 8
  %106 = getelementptr inbounds nuw %struct.SampleScanState, ptr %105, i32 0, i32 4
  store ptr null, ptr %106, align 8
  %107 = load ptr, ptr %9, align 8
  %108 = getelementptr inbounds nuw %struct.TsmRoutine, ptr %107, i32 0, i32 5
  %109 = load ptr, ptr %108, align 8
  %110 = icmp ne ptr %109, null
  br i1 %110, label %111, label %117

111:                                              ; preds = %97
  %112 = load ptr, ptr %9, align 8
  %113 = getelementptr inbounds nuw %struct.TsmRoutine, ptr %112, i32 0, i32 5
  %114 = load ptr, ptr %113, align 8
  %115 = load ptr, ptr %7, align 8
  %116 = load i32, ptr %6, align 4
  call void %114(ptr noundef %115, i32 noundef %116)
  br label %117

117:                                              ; preds = %111, %97
  %118 = load ptr, ptr %7, align 8
  %119 = getelementptr inbounds nuw %struct.SampleScanState, ptr %118, i32 0, i32 7
  store i8 0, ptr %119, align 2
  %120 = load ptr, ptr %7, align 8
  call void @llvm.lifetime.end.p0(i64 8, ptr %9) #7
  call void @llvm.lifetime.end.p0(i64 8, ptr %8) #7
  call void @llvm.lifetime.end.p0(i64 8, ptr %7) #7
  ret ptr %120
}