; Function Attrs: nounwind uwtable
define dso_local noundef ptr @ExecInitSampleScan(ptr noundef %0, ptr noundef %1, i32 noundef %2) local_unnamed_addr #0 {
  %4 = getelementptr inbounds nuw i8, ptr %0, i64 112
  %5 = load ptr, ptr %4, align 8
  %6 = tail call noundef ptr @palloc0(i64 noundef 280) #6
  store i32 403, ptr %6, align 4
  %7 = getelementptr inbounds nuw i8, ptr %6, i64 8
  store ptr %0, ptr %7, align 8
  %8 = getelementptr inbounds nuw i8, ptr %6, i64 16
  store ptr %1, ptr %8, align 8
  %9 = getelementptr inbounds nuw i8, ptr %6, i64 24
  store ptr @ExecSampleScan, ptr %9, align 8
  tail call void @ExecAssignExprContext(ptr noundef %1, ptr noundef %6) #6
  %10 = getelementptr inbounds nuw i8, ptr %0, i64 104
  %11 = load i32, ptr %10, align 8
  %12 = tail call ptr @ExecOpenScanRelation(ptr noundef %1, i32 noundef %11, i32 noundef %2) #6
  %13 = getelementptr inbounds nuw i8, ptr %6, i64 200
  store ptr %12, ptr %13, align 8
  %14 = getelementptr inbounds nuw i8, ptr %6, i64 208
  store ptr null, ptr %14, align 8
  %15 = getelementptr inbounds nuw i8, ptr %12, i64 64
  %16 = load ptr, ptr %15, align 8
  %17 = tail call ptr @table_slot_callbacks(ptr noundef %12) #6
  tail call void @ExecInitScanTupleSlot(ptr noundef %1, ptr noundef %6, ptr noundef %16, ptr noundef %17) #6
  tail call void @ExecInitResultTypeTL(ptr noundef %6) #6
  tail call void @ExecAssignScanProjectionInfo(ptr noundef %6) #6
  %18 = getelementptr inbounds nuw i8, ptr %0, i64 56
  %19 = load ptr, ptr %18, align 8
  %20 = tail call ptr @ExecInitQual(ptr noundef %19, ptr noundef %6) #6
  %21 = getelementptr inbounds nuw i8, ptr %6, i64 64
  store ptr %20, ptr %21, align 8
  %22 = getelementptr inbounds nuw i8, ptr %5, i64 8
  %23 = load ptr, ptr %22, align 8
  %24 = tail call ptr @ExecInitExprList(ptr noundef %23, ptr noundef %6) #6
  %25 = getelementptr inbounds nuw i8, ptr %6, i64 224
  store ptr %24, ptr %25, align 8
  %26 = getelementptr inbounds nuw i8, ptr %5, i64 16
  %27 = load ptr, ptr %26, align 8
  %28 = tail call ptr @ExecInitExpr(ptr noundef %27, ptr noundef %6) #6
  %29 = getelementptr inbounds nuw i8, ptr %6, i64 232
  store ptr %28, ptr %29, align 8
  %30 = load ptr, ptr %26, align 8
  %31 = icmp eq ptr %30, null
  br i1 %31, label %32, label %35

32:                                               ; preds = %3
  %33 = tail call i32 @pg_prng_uint32(ptr noundef nonnull @pg_global_prng_state) #6
  %34 = getelementptr inbounds nuw i8, ptr %6, i64 260
  store i32 %33, ptr %34, align 4
  br label %35

35:                                               ; preds = %32, %3
  %36 = getelementptr inbounds nuw i8, ptr %5, i64 4
  %37 = load i32, ptr %36, align 4
  %38 = tail call ptr @GetTsmRoutine(i32 noundef %37) #6
  %39 = getelementptr inbounds nuw i8, ptr %6, i64 240
  store ptr %38, ptr %39, align 8
  %40 = getelementptr inbounds nuw i8, ptr %6, i64 248
  store ptr null, ptr %40, align 8
  %41 = getelementptr inbounds nuw i8, ptr %38, i64 32
  %42 = load ptr, ptr %41, align 8
  %.not = icmp eq ptr %42, null
  br i1 %.not, label %44, label %43

43:                                               ; preds = %35
  tail call void %42(ptr noundef nonnull %6, i32 noundef %2) #6
  br label %44

44:                                               ; preds = %43, %35
  %45 = getelementptr inbounds nuw i8, ptr %6, i64 258
  store i8 0, ptr %45, align 2
  ret ptr %6
}